; Function Attrs: mustprogress uwtable
define dso_local noundef i32 @_ZN4absl18debugging_internal6GetCPUEv() local_unnamed_addr #0 {
  %1 = alloca i32, align 4
  call void @llvm.lifetime.start.p0(i64 4, ptr nonnull %1) #8
  %2 = load atomic i64, ptr @_ZN4absl18debugging_internal11VDSOSupport10getcpu_fn_E seq_cst, align 8
  %.0.i.i.i = inttoptr i64 %2 to ptr
  %3 = call noundef i64 %.0.i.i.i(ptr noundef nonnull %1, ptr noundef null, ptr noundef null)
  %4 = icmp eq i64 %3, 0
  %5 = load i32, ptr %1, align 4
  %6 = trunc i64 %3 to i32
  %7 = select i1 %4, i32 %5, i32 %6
  call void @llvm.lifetime.end.p0(i64 4, ptr nonnull %1) #8
  ret i32 %7
}